; Function Attrs: mustprogress uwtable
define internal void @_ZL20DOCTEST_ANON_FUNC_22v() #3 personality ptr @__gxx_personality_v0 {
  %1 = alloca %"class.doctest::String", align 8
  %2 = alloca %"struct.doctest::detail::ResultBuilder", align 8
  %3 = alloca %"class.doctest::String", align 8
  %4 = alloca %"class.std::__cxx11::basic_string", align 8
  %5 = alloca %"class.std::__cxx11::basic_string", align 8
  %6 = load i8, ptr @_ZN5FFlag20LuauCodegenFastcall3E, align 8
  %7 = and i8 %6, 1
  store i8 1, ptr @_ZN5FFlag20LuauCodegenFastcall3E, align 8
  invoke void @_ZN7doctest6StringC1EPKc(ptr noundef nonnull align 8 dereferenceable(24) %3, ptr noundef nonnull @.str)
          to label %8 unwind label %26

8:                                                ; preds = %0
  invoke void @_ZN7doctest6detail13ResultBuilderC1ENS_10assertType4EnumEPKciS5_S5_RKNS_6StringE(ptr noundef nonnull align 8 dereferenceable(144) %2, i32 noundef 1034, ptr noundef nonnull @.str.56, i32 noundef 427, ptr noundef nonnull @.str.201, ptr noundef nonnull @.str, ptr noundef nonnull align 8 dereferenceable(24) %3)
          to label %9 unwind label %28

9:                                                ; preds = %8
  call void @_ZN7doctest6StringD1Ev(ptr noundef nonnull align 8 dereferenceable(24) %3) #16
  invoke fastcc void @_ZL18getCodegenAssemblyB5cxx11PKcbi(ptr dead_on_unwind noalias nonnull writable align 8 %5, ptr noundef nonnull @.str.202, i1 noundef zeroext false, i32 noundef 1)
          to label %10 unwind label %30

10:                                               ; preds = %9
  %11 = invoke noundef nonnull align 8 dereferenceable(32) ptr @_ZNSt7__cxx1112basic_stringIcSt11char_traitsIcESaIcEE6insertEmPKc(ptr noundef nonnull align 8 dereferenceable(32) %5, i64 noundef 0, ptr noundef nonnull @.str.152)
          to label %12 unwind label %32

12:                                               ; preds = %10
  call void @_ZNSt7__cxx1112basic_stringIcSt11char_traitsIcESaIcEEC1EOS4_(ptr noundef nonnull align 8 dereferenceable(32) %4, ptr noundef nonnull align 8 dereferenceable(32) %11) #16
  call void @llvm.lifetime.start.p0(i64 24, ptr nonnull %1)
  %13 = call noundef i32 @_ZNKSt7__cxx1112basic_stringIcSt11char_traitsIcESaIcEE7compareEPKc(ptr noundef nonnull align 8 dereferenceable(32) %4, ptr noundef nonnull @.str.203) #16
  %14 = icmp ne i32 %13, 0
  %15 = getelementptr inbounds i8, ptr %2, i64 40
  %16 = zext i1 %14 to i8
  store i8 %16, ptr %15, align 8
  br i1 %14, label %22, label %17

17:                                               ; preds = %12
  %18 = invoke noundef ptr @_ZN7doctest17getContextOptionsEv()
          to label %.noexc unwind label %34

.noexc:                                           ; preds = %17
  %19 = getelementptr inbounds i8, ptr %18, i64 108
  %20 = load i8, ptr %19, align 4
  %21 = trunc i8 %20 to i1
  br i1 %21, label %22, label %25

22:                                               ; preds = %.noexc, %12
  invoke void @_ZN7doctest6detail19stringifyBinaryExprINSt7__cxx1112basic_stringIcSt11char_traitsIcESaIcEEEA162_cEENS_6StringERKT_PKcRKT0_(ptr dead_on_unwind nonnull writable sret(%"class.doctest::String") align 8 %1, ptr noundef nonnull align 8 dereferenceable(32) %4, ptr noundef nonnull @.str.155, ptr noundef nonnull align 1 dereferenceable(162) @.str.203)
          to label %.noexc7 unwind label %34

.noexc7:                                          ; preds = %22
  %23 = getelementptr inbounds i8, ptr %2, i64 72
  %24 = call noundef nonnull align 8 dereferenceable(24) ptr @_ZN7doctest6StringaSEOS0_(ptr noundef nonnull align 8 dereferenceable(24) %23, ptr noundef nonnull align 8 dereferenceable(24) %1) #16
  call void @_ZN7doctest6StringD1Ev(ptr noundef nonnull align 8 dereferenceable(24) %1) #16
  br label %25

25:                                               ; preds = %.noexc7, %.noexc
  call void @llvm.lifetime.end.p0(i64 24, ptr nonnull %1)
  call void @_ZNSt7__cxx1112basic_stringIcSt11char_traitsIcESaIcEED1Ev(ptr noundef nonnull align 8 dereferenceable(32) %4) #16
  call void @_ZNSt7__cxx1112basic_stringIcSt11char_traitsIcESaIcEED1Ev(ptr noundef nonnull align 8 dereferenceable(32) %5) #16
  br label %40

26:                                               ; preds = %0
  %27 = landingpad { ptr, i32 }
          cleanup
  br label %_ZN12ScopedFValueIbED2Ev.exit9

28:                                               ; preds = %8
  %29 = landingpad { ptr, i32 }
          cleanup
  call void @_ZN7doctest6StringD1Ev(ptr noundef nonnull align 8 dereferenceable(24) %3) #16
  br label %_ZN12ScopedFValueIbED2Ev.exit9

30:                                               ; preds = %9
  %31 = landingpad { ptr, i32 }
          catch ptr null
  br label %37

32:                                               ; preds = %10
  %33 = landingpad { ptr, i32 }
          catch ptr null
  br label %36

34:                                               ; preds = %22, %17
  %35 = landingpad { ptr, i32 }
          catch ptr null
  call void @_ZNSt7__cxx1112basic_stringIcSt11char_traitsIcESaIcEED1Ev(ptr noundef nonnull align 8 dereferenceable(32) %4) #16
  br label %36

36:                                               ; preds = %34, %32
  %.pn = phi { ptr, i32 } [ %35, %34 ], [ %33, %32 ]
  call void @_ZNSt7__cxx1112basic_stringIcSt11char_traitsIcESaIcEED1Ev(ptr noundef nonnull align 8 dereferenceable(32) %5) #16
  br label %37

37:                                               ; preds = %36, %30
  %.pn.pn = phi { ptr, i32 } [ %.pn, %36 ], [ %31, %30 ]
  %.13 = extractvalue { ptr, i32 } %.pn.pn, 0
  %38 = call ptr @__cxa_begin_catch(ptr %.13) #16
  invoke void @_ZN7doctest6detail13ResultBuilder18translateExceptionEv(ptr noundef nonnull align 8 dereferenceable(144) %2)
          to label %39 unwind label %44

39:                                               ; preds = %37
  invoke void @__cxa_end_catch()
          to label %40 unwind label %46

40:                                               ; preds = %39, %25
  %41 = invoke noundef zeroext i1 @_ZN7doctest6detail13ResultBuilder3logEv(ptr noundef nonnull align 8 dereferenceable(144) %2)
          to label %42 unwind label %46

42:                                               ; preds = %40
  br i1 %41, label %43, label %48

43:                                               ; preds = %42
  call void asm sideeffect "int $$3\0A", "~{dirflag},~{fpsr},~{flags}"() #16, !srcloc !14
  br label %48

44:                                               ; preds = %37
  %45 = landingpad { ptr, i32 }
          cleanup
  invoke void @__cxa_end_catch()
          to label %52 unwind label %53

46:                                               ; preds = %48, %40, %39
  %47 = landingpad { ptr, i32 }
          cleanup
  br label %52

48:                                               ; preds = %43, %42
  invoke void @_ZNK7doctest6detail13ResultBuilder5reactEv(ptr noundef nonnull align 8 dereferenceable(144) %2)
          to label %_ZN12ScopedFValueIbED2Ev.exit unwind label %46

_ZN12ScopedFValueIbED2Ev.exit:                    ; preds = %48
  %49 = getelementptr inbounds i8, ptr %2, i64 112
  call void @_ZN7doctest6StringD1Ev(ptr noundef nonnull align 8 dereferenceable(24) %49) #16
  %50 = getelementptr inbounds i8, ptr %2, i64 72
  call void @_ZN7doctest6StringD1Ev(ptr noundef nonnull align 8 dereferenceable(24) %50) #16
  %51 = getelementptr inbounds i8, ptr %2, i64 48
  call void @_ZN7doctest6StringD1Ev(ptr noundef nonnull align 8 dereferenceable(24) %51) #16
  store i8 %7, ptr @_ZN5FFlag20LuauCodegenFastcall3E, align 8
  ret void

52:                                               ; preds = %44, %46
  %.pn4 = phi { ptr, i32 } [ %47, %46 ], [ %45, %44 ]
  call void @_ZN7doctest6detail13ResultBuilderD2Ev(ptr noundef nonnull align 8 dereferenceable(144) %2) #16
  br label %_ZN12ScopedFValueIbED2Ev.exit9

_ZN12ScopedFValueIbED2Ev.exit9:                   ; preds = %52, %28, %26
  %.pn4.pn = phi { ptr, i32 } [ %.pn4, %52 ], [ %29, %28 ], [ %27, %26 ]
  store i8 %7, ptr @_ZN5FFlag20LuauCodegenFastcall3E, align 8
  resume { ptr, i32 } %.pn4.pn

53:                                               ; preds = %44
  %54 = landingpad { ptr, i32 }
          catch ptr null
  %55 = extractvalue { ptr, i32 } %54, 0
  call void @__clang_call_terminate(ptr %55) #17
  unreachable
}